target datalayout = "e-m:e-p270:32:32-p271:32:32-p272:64:64-i64:64-i128:128-f80:128-n8:16:32:64-S128"
target triple = "x86_64-pc-linux-gnu"

%class.symbol = type { ptr }
%class.ast_manager = type { %class.reslimit, %class.small_object_allocator, %class.family_manager, %class.parray_manager, %class.dependency_manager, %class.parray_manager.10, %class.ptr_vector.13, i32, i8, %class.ast_table, %class.obj_map, %class.id_gen, %class.id_gen, ptr, ptr, ptr, ptr, ptr, i32, i8, [3 x i8], %class.u_map, ptr, i8, i8, ptr, %class.symbol, %class.obj_map.21, ptr }
%class.reslimit = type { %"struct.std::atomic", i8, i64, i64, %class.svector, %class.ptr_vector }
%"struct.std::atomic" = type { %"struct.std::__atomic_base" }
%"struct.std::__atomic_base" = type { i32 }
%class.svector = type { %class.vector }
%class.vector = type { ptr }
%class.ptr_vector = type { %class.vector.0 }
%class.vector.0 = type { ptr }
%class.small_object_allocator = type { [32 x ptr], [32 x ptr], i64 }
%class.family_manager = type { i32, %class.symbol_table, %class.svector.4 }
%class.symbol_table = type { %class.core_hashtable, %class.vector.1, %class.svector.2 }
%class.core_hashtable = type <{ ptr, i32, i32, i32, [4 x i8] }>
%class.vector.1 = type { ptr }
%class.svector.2 = type { %class.vector.3 }
%class.vector.3 = type { ptr }
%class.svector.4 = type { %class.vector.5 }
%class.vector.5 = type { ptr }
%class.parray_manager = type { ptr, ptr, %class.ptr_vector.6, %class.ptr_vector.6 }
%class.ptr_vector.6 = type { %class.vector.7 }
%class.vector.7 = type { ptr }
%class.dependency_manager = type { ptr, ptr, %class.ptr_vector.8 }
%class.ptr_vector.8 = type { %class.vector.9 }
%class.vector.9 = type { ptr }
%class.parray_manager.10 = type { ptr, ptr, %class.ptr_vector.11, %class.ptr_vector.11 }
%class.ptr_vector.11 = type { %class.vector.12 }
%class.vector.12 = type { ptr }
%class.ptr_vector.13 = type { %class.vector.14 }
%class.vector.14 = type { ptr }
%class.ast_table = type { %class.chashtable }
%class.chashtable = type { ptr, i32, i32, i32, i32, i32, i32, i32, ptr, ptr, ptr }
%class.obj_map = type { %class.core_hashtable.15 }
%class.core_hashtable.15 = type <{ ptr, i32, i32, i32, [4 x i8] }>
%class.id_gen = type { i32, %class.svector.17 }
%class.svector.17 = type { %class.vector.18 }
%class.vector.18 = type { ptr }
%class.u_map = type { %class.map }
%class.map = type { %class.table2map }
%class.table2map = type { %class.core_hashtable.19 }
%class.core_hashtable.19 = type <{ ptr, i32, i32, i32, [4 x i8] }>
%class.obj_map.21 = type { %class.core_hashtable.22 }
%class.core_hashtable.22 = type <{ ptr, i32, i32, i32, [4 x i8] }>

; Function Attrs: mustprogress nounwind uwtable
define linkonce_odr hidden noundef zeroext i1 @_ZNK11ast_manager17is_format_managerEv(ptr noundef nonnull align 8 dereferenceable(976) %0) #8 comdat align 2 {
  %2 = alloca ptr, align 8
  store ptr %0, ptr %2, align 8, !tbaa !3
  %3 = load ptr, ptr %2, align 8
  %4 = getelementptr inbounds nuw %class.ast_manager, ptr %3, i32 0, i32 25
  %5 = load ptr, ptr %4, align 8, !tbaa !47
  %6 = icmp eq ptr %5, null
  ret i1 %6
}

; Function Attrs: mustprogress uwtable
define linkonce_odr hidden noundef nonnull align 8 dereferenceable(976) ptr @_ZN11ast_manager18get_format_managerEv(ptr noundef nonnull align 8 dereferenceable(976) %0) #4 comdat align 2 {
  %2 = alloca ptr, align 8
  store ptr %0, ptr %2, align 8, !tbaa !3
  %3 = load ptr, ptr %2, align 8
  %4 = call noundef zeroext i1 @_ZNK11ast_manager17is_format_managerEv(ptr noundef nonnull align 8 dereferenceable(976) %3)
  br i1 %4, label %5, label %6

5:                                                ; preds = %1
  br label %9

6:                                                ; preds = %1
  %7 = getelementptr inbounds nuw %class.ast_manager, ptr %3, i32 0, i32 25
  %8 = load ptr, ptr %7, align 8, !tbaa !47
  br label %9

9:                                                ; preds = %6, %5
  %10 = phi ptr [ %3, %5 ], [ %8, %6 ]
  ret ptr %10
}

; Function Attrs: mustprogress uwtable
define internal noundef i32 @_ZN9format_nsL3fidER11ast_manager(ptr noundef nonnull align 8 dereferenceable(976) %0) #4 {
  %2 = alloca ptr, align 8
  store ptr %0, ptr %2, align 8, !tbaa !3
  %3 = load ptr, ptr %2, align 8, !tbaa !3
  %4 = call noundef i32 @_ZN9format_ns20get_format_family_idER11ast_manager(ptr noundef nonnull align 8 dereferenceable(976) %3)
  ret i32 %4
}

; Function Attrs: inlinehint mustprogress uwtable
define linkonce_odr hidden noundef nonnull align 8 dereferenceable(976) ptr @_ZN9format_ns2fmER11ast_manager(ptr noundef nonnull align 8 dereferenceable(976) %0) #6 comdat {
  %2 = alloca ptr, align 8
  store ptr %0, ptr %2, align 8, !tbaa !3
  %3 = load ptr, ptr %2, align 8, !tbaa !3
  %4 = call noundef nonnull align 8 dereferenceable(976) ptr @_ZN11ast_manager18get_format_managerEv(ptr noundef nonnull align 8 dereferenceable(976) %3)
  ret ptr %4
}

; Function Attrs: mustprogress uwtable
define hidden noundef ptr @_ZN9format_ns10mk_composeER11ast_managerP3appS3_S3_S3_(ptr noundef nonnull align 8 dereferenceable(976) %0, ptr noundef %1, ptr noundef %2, ptr noundef %3, ptr noundef %4) #4 {
  %6 = alloca ptr, align 8
  %7 = alloca ptr, align 8
  %8 = alloca ptr, align 8
  %9 = alloca ptr, align 8
  %10 = alloca ptr, align 8
  %11 = alloca [4 x ptr], align 16
  store ptr %0, ptr %6, align 8, !tbaa !3
  store ptr %1, ptr %7, align 8, !tbaa !21
  store ptr %2, ptr %8, align 8, !tbaa !21
  store ptr %3, ptr %9, align 8, !tbaa !21
  store ptr %4, ptr %10, align 8, !tbaa !21
  call void @llvm.lifetime.start.p0(i64 32, ptr %11) #3
  %12 = load ptr, ptr %7, align 8, !tbaa !21
  store ptr %12, ptr %11, align 8, !tbaa !31
  %13 = getelementptr inbounds ptr, ptr %11, i64 1
  %14 = load ptr, ptr %8, align 8, !tbaa !21
  store ptr %14, ptr %13, align 8, !tbaa !31
  %15 = getelementptr inbounds ptr, ptr %11, i64 2
  %16 = load ptr, ptr %9, align 8, !tbaa !21
  store ptr %16, ptr %15, align 8, !tbaa !31
  %17 = getelementptr inbounds ptr, ptr %11, i64 3
  %18 = load ptr, ptr %10, align 8, !tbaa !21
  store ptr %18, ptr %17, align 8, !tbaa !31
  %19 = load ptr, ptr %6, align 8, !tbaa !3
  %20 = call noundef nonnull align 8 dereferenceable(976) ptr @_ZN9format_ns2fmER11ast_manager(ptr noundef nonnull align 8 dereferenceable(976) %19)
  %21 = load ptr, ptr %6, align 8, !tbaa !3
  %22 = call noundef i32 @_ZN9format_nsL3fidER11ast_manager(ptr noundef nonnull align 8 dereferenceable(976) %21)
  %23 = getelementptr inbounds [4 x ptr], ptr %11, i64 0, i64 0
  %24 = call noundef ptr @_ZN11ast_manager6mk_appEiijPKP4expr(ptr noundef nonnull align 8 dereferenceable(976) %20, i32 noundef %22, i32 noundef 3, i32 noundef 4, ptr noundef %23)
  call void @llvm.lifetime.end.p0(i64 32, ptr %11) #3
  ret ptr %24
}