; Function Attrs: mustprogress uwtable
define hidden noundef ptr @_ZN9format_ns10mk_composeER11ast_managerP3appS3_S3_S3_(ptr noundef nonnull align 8 dereferenceable(976) %0, ptr noundef %1, ptr noundef %2, ptr noundef %3, ptr noundef %4) local_unnamed_addr #3 {
  %6 = alloca [4 x ptr], align 16
  call void @llvm.lifetime.start.p0(i64 32, ptr nonnull %6) #20
  store ptr %1, ptr %6, align 16, !tbaa !96
  %7 = getelementptr inbounds nuw i8, ptr %6, i64 8
  store ptr %2, ptr %7, align 8, !tbaa !96
  %8 = getelementptr inbounds nuw i8, ptr %6, i64 16
  store ptr %3, ptr %8, align 16, !tbaa !96
  %9 = getelementptr inbounds nuw i8, ptr %6, i64 24
  store ptr %4, ptr %9, align 8, !tbaa !96
  %10 = getelementptr inbounds nuw i8, ptr %0, i64 928
  %11 = load ptr, ptr %10, align 8, !tbaa !3
  %12 = icmp eq ptr %11, null
  %13 = select i1 %12, ptr %0, ptr %11
  %14 = tail call noundef i32 @_ZN9format_ns20get_format_family_idER11ast_manager(ptr noundef nonnull align 8 dereferenceable(976) %0)
  %15 = call noundef ptr @_ZN11ast_manager6mk_appEiijPKP4expr(ptr noundef nonnull align 8 dereferenceable(976) %13, i32 noundef %14, i32 noundef 3, i32 noundef 4, ptr noundef nonnull %6)
  call void @llvm.lifetime.end.p0(i64 32, ptr nonnull %6) #20
  ret ptr %15
}